(dp0
S'24d'
p1
(lp2
(lp3
S'14r'
p4
aS'10o'
p5
aS'10m'
p6
aS'12l'
p7
aS'12m'
p8
aS'12o'
p9
aS'12r'
p10
aS'13M'
p11
aS'13L'
p12
aS'24b'
p13
aS'6Vb'
p14
aS'6Va'
p15
aS'13a'
p16
aS'PrCO'
p17
aS'11m'
p18
aS'11l'
p19
aS'Gu'
p20
aS'10v'
p21
aa(lp22
S'46v'
p23
aS'10d'
p24
aS'46d'
p25
aS'46f'
p26
aS'8Ad'
p27
aS'PS'
p28
aS'47/12'
p29
aS'M9'
p30
aS'44'
p31
aS'46dr'
p32
aS'14O'
p33
aS'9/46v'
p34
aS'D9'
p35
aS'OFap'
p36
aS'L9'
p37
aS'SMAr'
p38
aS'F2'
p39
aS'F4'
p40
aS'F5'
p41
aS'F6'
p42
aS'F7'
p43
aS'8B'
p44
aS'32'
p45
aS'46vr'
p46
aS'SMAc'
p47
aS'ProM#2'
p48
aS'24a'
p49
aS'45A'
p50
aS'45B'
p51
aS'9/46d'
p52
aa(lp53
S'M2-FL'
p54
aS'24c'
p55
aS'4c'
p56
aS'M2-HL'
p57
aasS'24a'
p58
(lp59
(lp60
g1
ag23
ag25
ag26
ag27
ag28
ag29
ag30
ag31
ag32
ag34
ag35
ag37
ag38
ag39
ag40
ag41
ag42
ag43
ag44
ag46
ag47
ag48
ag50
ag51
ag52
aa(lp61
g4
ag5
ag55
ag6
ag7
ag54
ag9
ag10
ag8
ag12
ag57
ag11
ag13
ag14
ag15
ag16
ag17
ag18
ag19
ag20
ag56
aa(lp62
g24
ag36
ag45
ag33
ag21
aasg5
(lp63
(lp64
S'14r'
p65
aS'24c'
p66
aS'10m'
p67
aS'12l'
p68
aS'12m'
p69
aS'10d'
p70
aS'12o'
p71
aS'12r'
p72
aS'13M'
p73
aS'24b'
p74
aS'14O'
p75
aS'6Vb'
p76
aS'6Va'
p77
aS'13a'
p78
aS'PrCO'
p79
aS'11m'
p80
aS'11l'
p81
aS'Gu'
p82
aS'10v'
p83
aS'OFap'
p84
aS'M2-FL'
p85
aS'32'
p86
aS'13L'
p87
aS'M2-HL'
p88
aS'4c'
p89
aa(lp90
S'24d'
p91
aS'46v'
p92
aS'46d'
p93
aS'46f'
p94
aS'8Ad'
p95
aS'PS'
p96
aS'47/12'
p97
aS'M9'
p98
aS'44'
p99
aS'46dr'
p100
aS'9/46v'
p101
aS'D9'
p102
aS'L9'
p103
aS'SMAr'
p104
aS'F2'
p105
aS'F4'
p106
aS'F5'
p107
aS'F6'
p108
aS'F7'
p109
aS'8B'
p110
aS'46vr'
p111
aS'SMAc'
p112
aS'ProM#2'
p113
aS'24a'
p114
aS'45A'
p115
aS'45B'
p116
aS'9/46d'
p117
aasS'47/12'
p118
(lp119
(lp120
g1
ag23
ag25
ag26
ag27
ag28
ag30
ag31
ag32
ag34
ag35
ag37
ag38
ag39
ag40
ag41
ag42
ag43
ag44
ag46
ag47
ag48
ag49
ag50
ag51
ag52
aa(lp121
g4
ag5
ag6
ag7
ag8
ag24
ag9
ag10
ag11
ag13
ag33
ag14
ag15
ag16
ag17
ag18
ag19
ag20
ag21
ag36
ag45
ag12
aa(lp122
g54
ag56
ag55
ag57
aasg6
(lp123
(lp124
g91
ag92
ag93
ag94
ag95
ag96
ag97
ag98
ag99
ag100
ag101
ag102
ag103
ag104
ag105
ag106
ag107
ag108
ag109
ag110
ag111
ag112
ag113
ag114
ag115
ag116
ag117
aa(lp125
g85
ag65
aS'10o'
p126
ag66
ag68
ag69
ag70
ag71
ag72
ag73
ag87
ag88
ag74
ag89
ag76
ag77
ag78
ag79
ag80
ag81
ag82
aa(lp127
g86
ag75
ag83
ag84
aasg23
(lp128
(lp129
g1
ag25
ag26
ag27
ag28
ag29
ag30
ag31
ag32
ag34
ag35
ag38
ag39
ag40
ag41
ag42
ag43
ag44
ag46
ag47
ag48
ag49
ag50
ag51
ag52
aa(lp130
g54
ag4
ag5
ag55
ag6
ag7
ag8
ag9
ag10
ag11
ag12
ag57
ag13
ag56
ag14
ag15
ag16
ag17
ag18
ag19
ag20
aa(lp131
g37
ag24
ag45
ag33
ag21
ag36
aasg7
(lp132
(lp133
g91
ag92
ag70
ag93
ag94
ag95
ag96
ag97
ag98
ag99
ag100
ag101
ag102
ag103
ag104
ag105
ag106
ag107
ag108
ag109
ag110
ag111
ag112
ag113
ag114
ag115
ag116
ag117
aa(lp134
g85
ag65
ag126
ag66
ag67
ag69
ag71
ag72
ag73
ag87
ag88
ag74
ag89
ag76
ag77
ag78
ag79
ag80
ag81
ag82
ag83
aa(lp135
g86
ag75
ag84
aasg8
(lp136
(lp137
g85
ag65
ag126
ag66
ag67
ag68
ag71
ag72
ag73
ag87
ag88
ag74
ag89
ag76
ag77
ag78
ag79
ag80
ag81
ag82
aa(lp138
g91
ag92
ag93
ag94
ag95
ag96
ag97
ag98
ag99
ag100
ag101
ag102
ag103
ag104
ag105
ag106
ag107
ag108
ag109
ag110
ag111
ag112
ag113
ag114
ag115
ag116
ag117
aa(lp139
g86
ag84
ag75
ag83
ag70
aasg70
(lp140
(lp141
g91
ag92
ag93
ag94
ag95
ag96
ag97
ag98
ag99
ag100
ag101
ag102
ag103
ag104
ag105
ag106
ag107
ag108
ag109
ag110
ag111
ag112
ag113
ag114
ag115
ag116
ag117
aa(lp142
g65
ag126
ag66
ag67
ag68
ag69
ag71
ag72
ag73
ag74
ag75
ag76
ag77
ag78
ag79
ag80
ag81
ag82
ag85
ag87
ag88
ag89
aa(lp143
g86
ag83
ag84
aasg9
(lp144
(lp145
g91
ag92
ag93
ag94
ag95
ag96
ag97
ag98
ag99
ag100
ag101
ag102
ag82
ag104
ag105
ag106
ag107
ag108
ag109
ag110
ag111
ag112
ag113
ag114
ag115
ag116
ag117
aa(lp146
g103
ag70
ag86
ag75
ag83
ag84
aa(lp147
g85
ag65
ag126
ag66
ag67
ag68
ag69
ag72
ag73
ag87
ag88
ag74
ag89
ag76
ag77
ag78
ag79
ag80
ag81
aasg10
(lp148
(lp149
g91
ag92
ag93
ag94
ag95
ag96
ag97
ag98
ag99
ag100
ag101
ag102
ag103
ag104
ag105
ag106
ag107
ag108
ag109
ag110
ag111
ag112
ag113
ag114
ag115
ag116
ag117
aa(lp150
g65
ag126
ag66
ag67
ag68
ag69
ag70
ag71
ag73
ag74
ag75
ag76
ag77
ag78
ag79
ag80
ag81
ag82
ag83
ag84
ag85
ag86
ag87
ag88
ag89
aasg11
(lp151
(lp152
g91
ag92
ag93
ag94
ag95
ag96
ag97
ag98
ag99
ag100
ag101
ag102
ag103
ag104
ag105
ag106
ag107
ag108
ag109
ag110
ag111
ag112
ag113
ag114
ag115
ag116
ag117
aa(lp153
g65
ag126
ag66
ag67
ag68
ag69
ag70
ag71
ag72
ag74
ag75
ag76
ag77
ag78
ag79
ag80
ag81
ag82
ag83
ag84
ag85
ag86
ag87
ag88
ag89
aasS'46d'
p154
(lp155
(lp156
g1
ag23
ag26
ag27
ag28
ag29
ag30
ag31
ag32
ag34
ag35
ag37
ag38
ag39
ag40
ag41
ag42
ag43
ag44
ag46
ag47
ag48
ag49
ag50
ag51
ag52
aa(lp157
g4
ag5
ag55
ag6
ag7
ag8
ag9
ag10
ag11
ag13
ag33
ag14
ag15
ag16
ag17
ag18
ag19
ag20
ag54
ag12
ag57
ag56
aa(lp158
g24
aa(lp159
g45
ag21
ag36
aasg4
(lp160
(lp161
g85
ag126
ag66
ag67
ag68
ag69
ag71
ag72
ag73
ag87
ag88
ag74
ag76
ag77
ag78
ag79
ag80
ag81
ag82
ag83
aa(lp162
g91
ag92
ag93
ag94
ag95
ag96
ag97
ag98
ag99
ag100
ag101
ag102
ag103
ag104
ag105
ag106
ag107
ag108
ag109
ag110
ag111
ag112
ag113
ag114
ag115
ag116
ag117
ag89
aa(lp163
g86
ag70
ag75
ag84
aasS'46f'
p164
(lp165
(lp166
g1
ag23
ag25
ag27
ag28
ag29
ag30
ag31
ag32
ag34
ag35
ag38
ag39
ag40
ag41
ag42
ag43
ag44
ag46
ag47
ag48
ag49
ag50
ag51
ag52
aa(lp167
g54
ag4
ag5
ag55
ag6
ag7
ag8
ag9
ag10
ag11
ag57
ag12
ag13
ag56
ag14
ag15
ag16
ag17
ag18
ag19
ag20
aa(lp168
g37
ag24
ag45
ag33
ag21
ag36
aasS'8Ad'
p169
(lp170
(lp171
g1
ag23
ag25
ag26
ag28
ag29
ag30
ag31
ag32
ag34
ag35
ag37
ag38
ag39
ag40
ag41
ag42
ag43
ag44
ag46
ag47
ag48
ag49
ag50
ag51
ag52
aa(lp172
g4
ag5
ag12
ag6
ag7
ag8
ag9
ag10
ag11
ag13
ag14
ag15
ag16
ag17
ag18
ag19
ag20
aa(lp173
g54
ag55
ag24
ag45
ag57
ag56
ag33
ag21
ag36
aasS'PS'
p174
(lp175
(lp176
g54
ag4
ag5
ag55
ag6
ag7
ag8
ag9
ag10
ag11
ag57
ag12
ag13
ag56
ag14
ag15
ag16
ag17
ag18
ag19
ag20
aa(lp177
g1
ag23
ag25
ag26
ag27
ag29
ag30
ag31
ag32
ag34
ag35
ag37
ag38
ag39
ag40
ag41
ag42
ag43
ag44
ag46
ag47
ag48
ag49
ag50
ag51
ag52
aa(lp178
g24
ag45
ag33
ag21
ag36
aasg55
(lp179
(lp180
g91
ag92
ag70
ag93
ag95
ag97
ag98
ag99
ag75
ag101
ag102
ag84
ag103
ag105
ag106
ag107
ag108
ag109
ag110
ag86
ag113
ag114
ag115
ag116
ag117
aa(lp181
g85
ag65
ag126
ag67
ag68
ag69
ag71
ag72
ag73
ag87
ag88
ag74
ag89
ag76
ag77
ag78
ag79
ag80
ag81
ag82
ag83
aa(lp182
g104
ag112
ag111
ag94
ag96
ag100
aasS'M9'
p183
(lp184
(lp185
g1
ag23
ag25
ag26
ag27
ag28
ag29
ag31
ag32
ag34
ag35
ag37
ag38
ag39
ag40
ag41
ag42
ag43
ag44
ag46
ag47
ag48
ag49
ag50
ag51
ag52
aa(lp186
g4
ag5
ag55
ag6
ag7
ag8
ag9
ag10
ag11
ag13
ag33
ag14
ag15
ag16
ag17
ag18
ag19
ag20
ag54
ag12
ag57
ag56
aa(lp187
g24
ag45
ag21
ag36
aasS'44'
p188
(lp189
(lp190
S'24d'
p191
aS'46v'
p192
ag154
ag164
ag169
ag174
ag118
ag183
aS'46dr'
p193
aS'9/46v'
p194
aS'D9'
p195
aS'L9'
p196
aS'SMAr'
p197
aS'F2'
p198
aS'F4'
p199
aS'F5'
p200
aS'F6'
p201
aS'F7'
p202
aS'8B'
p203
aS'46vr'
p204
aS'SMAc'
p205
aS'ProM#2'
p206
aS'45A'
p207
aS'45B'
p208
aS'9/46d'
p209
aa(lp210
S'14r'
p211
aS'10o'
p212
aS'24c'
p213
aS'10m'
p214
aS'12l'
p215
aS'12m'
p216
aS'12o'
p217
aS'12r'
p218
aS'13M'
p219
aS'24b'
p220
aS'6Vb'
p221
aS'6Va'
p222
aS'13a'
p223
aS'PrCO'
p224
aS'11m'
p225
aS'11l'
p226
aS'Gu'
p227
aS'10v'
p228
aS'M2-FL'
p229
aS'13L'
p230
aS'M2-HL'
p231
aS'4c'
p232
aa(lp233
S'10d'
p234
aS'32'
p235
ag58
aS'OFap'
p236
aa(lp237
S'14O'
p238
aasg13
(lp239
(lp240
g1
ag23
ag25
ag26
ag27
ag28
ag29
ag30
ag31
ag32
ag34
ag35
ag37
ag38
ag39
ag40
ag41
ag42
ag43
ag44
ag46
ag47
ag48
ag49
ag50
ag51
ag52
aa(lp241
g4
ag5
ag55
ag6
ag7
ag8
ag24
ag9
ag10
ag11
ag33
ag14
ag15
ag16
ag17
ag18
ag19
ag20
ag21
ag36
ag54
ag45
ag12
ag57
ag56
aasg193
(lp242
(lp243
g1
ag23
ag25
ag26
ag27
ag28
ag29
ag30
ag31
ag34
ag35
ag38
ag39
ag40
ag41
ag42
ag43
ag44
ag46
ag47
ag48
ag49
ag50
ag51
ag52
aa(lp244
g4
ag5
ag55
ag6
ag7
ag8
ag9
ag10
ag11
ag13
ag33
ag14
ag15
ag16
ag17
ag18
ag19
ag20
ag21
ag54
ag12
ag57
ag56
aa(lp245
g24
ag45
ag36
ag37
aasg75
(lp246
(lp247
g91
ag92
ag93
ag94
ag95
ag96
ag97
ag98
ag99
ag100
ag101
ag102
ag103
ag104
ag105
ag106
ag107
ag108
ag109
ag110
ag111
ag112
ag113
ag114
ag115
ag116
ag117
aa(lp248
g85
ag65
ag126
ag66
ag67
ag68
ag69
ag71
ag72
ag73
ag88
ag87
ag74
ag76
ag77
ag78
ag79
ag80
ag81
ag82
ag89
aa(lp249
g70
ag86
ag83
ag84
aasg14
(lp250
(lp251
g1
ag23
ag25
ag26
ag27
ag28
ag29
ag30
ag31
ag32
ag34
ag35
ag37
ag38
ag39
ag40
ag41
ag42
ag43
ag44
ag46
ag47
ag48
ag50
ag51
ag52
aa(lp252
g24
ag45
ag36
ag33
ag49
aa(lp253
g54
ag4
ag5
ag55
ag6
ag7
ag8
ag9
ag10
ag11
ag57
ag12
ag13
ag15
ag16
ag17
ag18
ag19
ag20
ag21
ag56
aasg15
(lp254
(lp255
g1
ag23
ag25
ag26
ag27
ag28
ag29
ag30
ag31
ag32
ag34
ag35
ag37
ag38
ag39
ag40
ag41
ag42
ag43
ag44
ag46
ag47
ag48
ag49
ag50
ag51
ag52
aa(lp256
g4
ag5
ag55
ag6
ag7
ag8
ag24
ag9
ag10
ag11
ag13
ag33
ag14
ag16
ag17
ag18
ag19
ag20
ag21
ag36
ag54
ag45
ag12
ag57
ag56
aasg16
(lp257
(lp258
g1
ag23
ag25
ag26
ag27
ag28
ag29
ag30
ag31
ag32
ag34
ag35
ag37
ag38
ag39
ag40
ag41
ag42
ag43
ag44
ag46
ag47
ag48
ag49
ag50
ag51
ag52
ag56
aa(lp259
g54
ag4
ag5
ag55
ag6
ag7
ag8
ag9
ag10
ag11
ag57
ag12
ag13
ag14
ag15
ag17
ag18
ag19
ag20
ag21
aa(lp260
g24
ag45
ag33
ag36
aasg17
(lp261
(lp262
g1
ag23
ag25
ag26
ag27
ag28
ag29
ag30
ag31
ag32
ag34
ag35
ag37
ag38
ag39
ag40
ag41
ag42
ag43
ag44
ag46
ag47
ag48
ag49
ag50
ag51
ag52
aa(lp263
g4
ag5
ag55
ag6
ag7
ag8
ag24
ag9
ag10
ag11
ag13
ag33
ag14
ag15
ag16
ag18
ag19
ag20
ag21
ag36
ag54
ag45
ag12
ag57
ag56
aasg18
(lp264
(lp265
g1
ag23
ag25
ag26
ag27
ag28
ag29
ag30
ag31
ag32
ag34
ag35
ag37
ag38
ag39
ag40
ag41
ag42
ag43
ag44
ag46
ag47
ag48
ag49
ag50
ag51
ag52
aa(lp266
g54
ag4
ag5
ag55
ag6
ag7
ag8
ag9
ag10
ag11
ag57
ag12
ag13
ag14
ag15
ag16
ag17
ag19
ag20
ag21
ag56
aa(lp267
g24
ag45
ag33
ag36
aasg19
(lp268
(lp269
g1
ag23
ag25
ag26
ag27
ag28
ag29
ag30
ag31
ag32
ag34
ag35
ag38
ag39
ag40
ag41
ag42
ag43
ag44
ag46
ag47
ag48
ag49
ag50
ag51
ag52
aa(lp270
g54
ag4
ag5
ag55
ag6
ag7
ag8
ag9
ag10
ag11
ag57
ag12
ag13
ag14
ag15
ag16
ag17
ag18
ag20
ag56
aa(lp271
g37
ag24
ag45
ag33
ag21
ag36
aasg113
(lp272
(lp273
g65
ag126
ag66
ag67
ag68
ag69
ag71
ag72
ag73
ag94
ag74
ag76
ag77
ag78
ag79
ag80
ag81
ag82
ag83
ag85
ag87
ag88
ag89
aa(lp274
g91
ag92
ag70
ag93
ag95
ag97
ag98
ag99
ag75
ag101
ag102
ag103
ag105
ag106
ag107
ag108
ag109
ag110
ag86
ag114
ag115
ag116
ag117
aa(lp275
g84
ag104
ag111
ag112
ag96
ag100
aasg198
(lp276
(lp277
g4
ag5
ag55
ag6
ag7
ag54
ag9
ag10
ag8
ag57
ag11
ag12
ag13
ag14
ag15
ag16
ag17
ag18
ag19
ag20
ag56
aa(lp278
g1
ag23
ag25
ag26
ag27
ag28
ag29
ag30
ag31
ag32
ag34
ag35
ag37
ag38
ag40
ag41
ag42
ag43
ag44
ag46
ag47
ag48
ag49
ag50
ag51
ag52
aa(lp279
g36
ag24
ag21
ag33
ag45
aasg83
(lp280
(lp281
g91
ag92
ag93
ag94
ag95
ag96
ag97
ag98
ag99
ag100
ag101
ag102
ag104
ag105
ag106
ag107
ag108
ag109
ag110
ag111
ag112
ag113
ag114
ag115
ag116
ag117
aa(lp282
g85
ag65
ag126
ag66
ag67
ag68
ag69
ag71
ag72
ag73
ag88
ag87
ag74
ag76
ag77
ag78
ag79
ag80
ag81
ag82
ag89
aa(lp283
g70
ag86
ag84
ag75
ag103
aasg84
(lp284
(lp285
g91
ag92
ag93
ag94
ag95
ag96
ag97
ag98
ag99
ag100
ag101
ag102
ag103
ag104
ag105
ag106
ag107
ag108
ag109
ag110
ag111
ag112
ag113
ag114
ag115
ag116
ag117
aa(lp286
g65
ag126
ag66
ag67
ag68
ag69
ag71
ag72
ag73
ag74
ag75
ag76
ag77
ag78
ag79
ag80
ag81
ag82
ag85
ag87
ag88
ag89
aa(lp287
g70
ag86
ag83
aasg85
(lp288
(lp289
g91
ag92
ag93
ag94
ag95
ag96
ag97
ag98
ag99
ag100
ag101
ag102
ag104
ag105
ag106
ag107
ag108
ag109
ag110
ag111
ag112
ag113
ag114
ag115
ag116
ag117
aa(lp290
g65
ag126
ag66
ag67
ag68
ag69
ag71
ag72
ag73
ag88
ag87
ag74
ag76
ag77
ag78
ag79
ag80
ag81
ag82
ag89
aa(lp291
g84
ag103
ag70
ag86
ag75
ag83
aasg86
(lp292
(lp293
g91
ag92
ag70
ag93
ag94
ag95
ag96
ag97
ag98
ag99
ag100
ag101
ag102
ag84
ag103
ag104
ag105
ag106
ag107
ag108
ag109
ag110
ag111
ag112
ag113
ag114
ag115
ag116
ag117
aa(lp294
g65
ag126
ag87
ag67
ag68
ag69
ag71
ag72
ag73
ag74
ag75
ag76
ag77
ag78
ag79
ag80
ag81
ag82
ag83
aa(lp295
g85
ag66
ag88
ag89
aasg196
(lp296
(lp297
g236
ag235
ag238
ag234
ag228
aa(lp298
g191
ag192
ag154
ag164
ag169
ag174
ag118
ag183
ag188
ag193
ag194
ag195
ag197
ag198
ag199
ag200
ag201
ag202
ag203
ag204
ag205
ag206
ag58
ag207
ag208
ag209
aa(lp299
g211
ag212
ag213
ag214
ag215
ag229
ag217
ag218
ag216
ag231
ag219
ag230
ag220
ag221
ag222
ag223
ag224
ag225
ag226
ag227
ag232
aasg197
(lp300
(lp301
S'14r'
p302
aS'10o'
p303
aS'24c'
p304
aS'10m'
p305
aS'12l'
p306
aS'12m'
p307
aS'12o'
p308
aS'12r'
p309
aS'13M'
p310
aS'24b'
p311
aS'6Vb'
p312
aS'6Va'
p313
aS'13a'
p314
aS'PrCO'
p315
aS'11m'
p316
aS'11l'
p317
aS'Gu'
p318
aS'M2-FL'
p319
aS'13L'
p320
aS'SMAc'
p321
aS'M2-HL'
p322
aS'4c'
p323
aa(lp324
S'24d'
p325
aS'46v'
p326
aS'46d'
p327
aS'46f'
p328
aS'8Ad'
p329
aS'PS'
p330
aS'47/12'
p331
aS'M9'
p332
aS'44'
p333
aS'46dr'
p334
aS'9/46v'
p335
aS'D9'
p336
aS'L9'
p337
aS'F2'
p338
aS'F4'
p339
aS'F5'
p340
aS'F6'
p341
aS'F7'
p342
aS'8B'
p343
aS'46vr'
p344
aS'ProM#2'
p345
aS'24a'
p346
aS'45A'
p347
aS'45B'
p348
aS'9/46d'
p349
aa(lp350
S'OFap'
p351
aS'10d'
p352
aS'10v'
p353
aS'14O'
p354
aS'32'
p355
aasg20
(lp356
(lp357
g91
ag92
ag93
ag94
ag95
ag96
ag97
ag98
ag99
ag100
ag101
ag102
ag84
ag104
ag105
ag106
ag107
ag108
ag109
ag110
ag111
ag112
ag113
ag114
ag115
ag116
ag117
aa(lp358
g85
ag65
ag126
ag66
ag67
ag68
ag69
ag71
ag72
ag73
ag88
ag87
ag74
ag76
ag77
ag78
ag79
ag80
ag81
ag83
ag89
aa(lp359
g70
ag86
ag75
ag103
aasg199
(lp360
(lp361
g302
ag303
ag304
ag305
ag306
ag319
ag308
ag309
ag307
ag322
ag310
ag320
ag311
ag312
ag313
ag314
ag315
ag316
ag317
ag318
ag353
aa(lp362
g325
ag326
ag327
ag328
ag329
ag330
ag331
ag332
ag333
ag334
ag335
ag336
aS'SMAr'
p363
ag338
ag340
ag341
ag342
ag343
ag344
ag321
ag345
ag346
ag347
ag348
ag349
aa(lp364
g337
aa(lp365
g351
ag352
ag323
ag354
ag355
aasg200
(lp366
(lp367
g302
ag303
ag304
ag305
ag306
ag319
ag308
ag309
ag307
ag322
ag310
ag320
ag311
ag312
ag313
ag314
ag315
ag316
ag317
ag318
ag323
aa(lp368
g325
ag326
ag327
ag328
ag329
ag330
ag331
ag332
ag333
ag334
ag335
ag336
ag337
ag363
ag338
ag339
ag341
ag342
ag343
ag344
ag321
ag345
ag346
ag347
ag348
ag349
aa(lp369
g351
ag352
ag353
ag354
ag355
aasg341
(lp370
(lp371
g302
ag303
ag304
ag305
ag306
ag307
ag308
ag309
ag310
ag311
ag312
ag313
ag314
ag315
ag316
ag317
ag318
ag353
ag319
ag320
ag322
ag323
aa(lp372
g325
ag326
ag327
ag328
ag329
ag330
ag331
ag332
ag333
ag334
ag354
ag335
ag336
ag363
ag338
ag339
ag340
ag342
ag343
ag344
ag321
ag345
ag346
ag347
ag348
ag349
aa(lp373
g351
ag355
ag337
ag352
aasg342
(lp374
(lp375
g325
ag326
ag352
ag327
ag329
ag331
ag332
ag333
ag354
ag335
ag336
ag351
ag337
ag338
ag339
ag340
ag341
ag343
ag355
ag345
ag346
ag347
ag348
ag349
aa(lp376
g302
ag303
ag304
ag305
ag306
ag307
ag308
ag309
ag310
ag311
ag312
ag313
ag314
ag315
ag316
ag317
ag318
ag353
ag319
ag320
ag322
ag323
aa(lp377
g363
ag344
ag321
ag328
ag330
ag334
aasg343
(lp378
(lp379
g91
ag92
ag93
ag94
ag95
ag96
ag97
ag98
ag99
ag100
ag101
ag102
ag84
ag104
ag105
ag106
ag107
ag108
ag109
ag111
ag112
ag113
ag114
ag115
ag116
ag117
aa(lp380
g70
ag86
ag103
ag75
aa(lp381
g65
ag126
ag66
ag67
ag68
ag69
ag71
ag72
ag73
ag74
ag76
ag77
ag78
ag79
ag80
ag81
ag82
ag83
ag85
ag87
ag88
ag89
aasg194
(lp382
(lp383
g1
ag23
ag25
ag26
ag27
ag28
ag29
ag30
ag31
ag32
ag35
ag37
ag38
ag39
ag40
ag41
ag42
ag43
ag44
ag46
ag47
ag48
ag49
ag50
ag51
ag52
aa(lp384
g4
ag5
ag55
ag6
ag7
ag8
ag9
ag10
ag11
ag13
ag14
ag15
ag16
ag17
ag18
ag19
ag20
ag21
ag54
ag12
ag57
ag56
aa(lp385
g24
ag45
ag33
ag36
aasg46
(lp386
(lp387
g4
ag5
ag55
ag6
ag7
ag54
ag9
ag10
ag8
ag57
ag11
ag12
ag13
ag14
ag15
ag16
ag17
ag18
ag19
ag20
ag56
aa(lp388
g1
ag23
ag25
ag26
ag27
ag28
ag29
ag30
ag31
ag32
ag34
ag35
ag37
ag38
ag39
ag40
ag41
ag42
ag43
ag44
ag47
ag48
ag49
ag50
ag51
ag52
aa(lp389
g24
ag36
ag45
ag33
ag21
aasg12
(lp390
(lp391
g4
ag5
ag55
ag6
ag7
ag8
ag9
ag10
ag11
ag13
ag33
ag14
ag15
ag16
ag17
ag18
ag19
ag21
ag54
ag46
ag57
ag56
aa(lp392
g1
ag29
ag31
ag39
ag40
ag41
ag42
ag43
ag26
ag27
ag49
ag50
ag51
ag52
ag48
ag34
ag20
aa(lp393
g36
ag37
ag38
ag23
ag24
ag44
ag45
ag25
ag28
ag30
ag47
ag32
ag35
aasg112
(lp394
(lp395
g91
ag92
ag93
ag94
ag95
ag96
ag97
ag98
ag99
ag100
ag101
ag102
ag104
ag105
ag106
ag107
ag108
ag109
ag110
ag111
ag113
ag114
ag115
ag116
ag117
aa(lp396
g65
ag126
ag66
ag67
ag68
ag69
ag71
ag72
ag73
ag74
ag76
ag77
ag78
ag79
ag80
ag81
ag82
ag83
ag84
ag85
ag87
ag88
ag89
aa(lp397
g70
ag86
ag103
ag75
aasg57
(lp398
(lp399
g91
ag92
ag93
ag94
ag95
ag96
ag97
ag98
ag99
ag100
ag101
ag102
ag103
ag104
ag105
ag106
ag107
ag108
ag109
ag110
ag111
ag112
ag113
ag114
ag115
ag116
ag117
aa(lp400
g65
ag126
ag66
ag67
ag68
ag69
ag70
ag71
ag72
ag73
ag74
ag75
ag76
ag77
ag78
ag79
ag80
ag81
ag82
ag83
ag84
ag85
ag86
ag87
ag89
aasg195
(lp401
(lp402
g4
ag5
ag55
ag6
ag7
ag8
ag24
ag9
ag10
ag11
ag13
ag33
ag14
ag15
ag16
ag17
ag18
ag19
ag20
ag21
ag36
ag54
ag45
ag12
ag57
ag56
aa(lp403
g1
ag23
ag25
ag26
ag27
ag28
ag29
ag30
ag31
ag32
ag34
ag37
ag38
ag39
ag40
ag41
ag42
ag43
ag44
ag46
ag47
ag48
ag49
ag50
ag51
ag52
aasg115
(lp404
(lp405
g91
ag92
ag93
ag94
ag95
ag96
ag97
ag98
ag99
ag100
ag101
ag102
ag104
ag105
ag106
ag107
ag108
ag109
ag110
ag111
ag112
ag113
ag114
ag116
ag117
aa(lp406
g65
ag126
ag66
ag67
ag68
ag69
ag71
ag72
ag73
ag74
ag76
ag77
ag78
ag79
ag80
ag81
ag82
ag83
ag85
ag87
ag88
ag89
aa(lp407
g70
ag84
ag86
ag103
ag75
aasg116
(lp408
(lp409
g74
ag65
ag126
ag66
ag67
ag68
ag85
ag71
ag72
ag69
ag87
ag73
ag89
ag76
ag77
ag78
ag79
ag80
ag81
ag82
ag83
aa(lp410
g91
ag92
ag93
ag94
ag95
ag96
ag97
ag98
ag99
ag100
ag101
ag102
ag103
ag104
ag105
ag106
ag107
ag108
ag109
ag110
ag111
ag112
ag88
ag113
ag114
ag115
ag117
aa(lp411
g70
ag84
ag86
ag75
aasg117
(lp412
(lp413
g91
ag92
ag93
ag94
ag95
ag96
ag97
ag98
ag99
ag100
ag101
ag102
ag103
ag104
ag105
ag106
ag107
ag108
ag109
ag110
ag111
ag112
ag113
ag114
ag115
ag116
aa(lp414
g65
ag126
ag66
ag67
ag68
ag69
ag70
ag71
ag72
ag73
ag74
ag75
ag76
ag77
ag78
ag79
ag80
ag81
ag82
ag83
ag84
ag85
ag86
ag87
ag88
ag89
aasg56
(lp415
(lp416
g1
ag23
ag25
ag26
ag27
ag28
ag29
ag30
ag31
ag32
ag34
ag35
ag37
ag38
ag39
ag40
ag41
ag42
ag43
ag44
ag46
ag47
ag48
ag49
ag50
ag51
ag52
aa(lp417
g4
ag5
ag55
ag6
ag7
ag8
ag24
ag9
ag10
ag11
ag13
ag33
ag14
ag15
ag16
ag17
ag18
ag19
ag20
ag21
ag36
ag54
ag45
ag12
ag57
aas.